; Function Attrs: nounwind uwtable
define hidden void @av1_highbd_inv_txfm_add_16x32_c(ptr noundef %0, ptr noundef %1, i32 noundef %2, ptr nocapture noundef readonly %3) local_unnamed_addr #1 {
  %5 = ptrtoint ptr %1 to i64
  %6 = shl i64 %5, 1
  %7 = inttoptr i64 %6 to ptr
  %8 = load i8, ptr %3, align 4
  %9 = getelementptr inbounds nuw i8, ptr %3, i64 8
  %10 = load i32, ptr %9, align 4
  tail call void @av1_inv_txfm2d_add_16x32_c(ptr noundef %0, ptr noundef %7, i32 noundef %2, i8 noundef zeroext %8, i32 noundef %10) #5
  ret void
}